target datalayout = "e-m:e-p270:32:32-p271:32:32-p272:64:64-i64:64-i128:128-f80:128-n8:16:32:64-S128"
target triple = "x86_64-pc-linux-gnu"

@.str.2 = private unnamed_addr constant [8 x i8] c"Success\00", align 1
@.str.3 = private unnamed_addr constant [17 x i8] c"Invalid argument\00", align 1
@.str.4 = private unnamed_addr constant [20 x i8] c"Out of buffer space\00", align 1
@.str.5 = private unnamed_addr constant [25 x i8] c"Unsupported SPDY version\00", align 1
@.str.6 = private unnamed_addr constant [22 x i8] c"Operation would block\00", align 1
@.str.7 = private unnamed_addr constant [15 x i8] c"Protocol error\00", align 1
@.str.8 = private unnamed_addr constant [21 x i8] c"Invalid frame octets\00", align 1
@.str.9 = private unnamed_addr constant [4 x i8] c"EOF\00", align 1
@.str.10 = private unnamed_addr constant [23 x i8] c"Data transfer deferred\00", align 1
@.str.11 = private unnamed_addr constant [28 x i8] c"No more Stream ID available\00", align 1
@.str.12 = private unnamed_addr constant [37 x i8] c"Stream was already closed or invalid\00", align 1
@.str.13 = private unnamed_addr constant [18 x i8] c"Stream is closing\00", align 1
@.str.14 = private unnamed_addr constant [48 x i8] c"The transmission is not allowed for this stream\00", align 1
@.str.15 = private unnamed_addr constant [21 x i8] c"Stream ID is invalid\00", align 1
@.str.16 = private unnamed_addr constant [21 x i8] c"Invalid stream state\00", align 1
@.str.17 = private unnamed_addr constant [45 x i8] c"Another DATA frame has already been deferred\00", align 1
@.str.18 = private unnamed_addr constant [31 x i8] c"request HEADERS is not allowed\00", align 1
@.str.19 = private unnamed_addr constant [29 x i8] c"GOAWAY has already been sent\00", align 1
@.str.20 = private unnamed_addr constant [21 x i8] c"Invalid header block\00", align 1
@.str.21 = private unnamed_addr constant [14 x i8] c"Invalid state\00", align 1
@.str.22 = private unnamed_addr constant [60 x i8] c"The user callback function failed due to the temporal error\00", align 1
@.str.23 = private unnamed_addr constant [35 x i8] c"The length of the frame is invalid\00", align 1
@.str.24 = private unnamed_addr constant [39 x i8] c"Header compression/decompression error\00", align 1
@.str.25 = private unnamed_addr constant [19 x i8] c"Flow control error\00", align 1
@.str.26 = private unnamed_addr constant [43 x i8] c"Insufficient buffer size given to function\00", align 1
@.str.27 = private unnamed_addr constant [39 x i8] c"Callback was paused by the application\00", align 1
@.str.28 = private unnamed_addr constant [27 x i8] c"Too many inflight SETTINGS\00", align 1
@.str.29 = private unnamed_addr constant [32 x i8] c"Server push is disabled by peer\00", align 1
@.str.30 = private unnamed_addr constant [64 x i8] c"DATA or HEADERS frame has already been submitted for the stream\00", align 1
@.str.31 = private unnamed_addr constant [31 x i8] c"The current session is closing\00", align 1
@.str.32 = private unnamed_addr constant [39 x i8] c"Invalid HTTP header field was received\00", align 1
@.str.33 = private unnamed_addr constant [33 x i8] c"Violation in HTTP messaging rule\00", align 1
@.str.34 = private unnamed_addr constant [19 x i8] c"Stream was refused\00", align 1
@.str.35 = private unnamed_addr constant [15 x i8] c"Internal error\00", align 1
@.str.36 = private unnamed_addr constant [7 x i8] c"Cancel\00", align 1
@.str.37 = private unnamed_addr constant [92 x i8] c"When a local endpoint expects to receive SETTINGS frame, it receives an other type of frame\00", align 1
@.str.38 = private unnamed_addr constant [14 x i8] c"Out of memory\00", align 1
@.str.39 = private unnamed_addr constant [34 x i8] c"The user callback function failed\00", align 1
@.str.40 = private unnamed_addr constant [38 x i8] c"Received bad client magic byte string\00", align 1
@.str.41 = private unnamed_addr constant [68 x i8] c"Flooding was detected in this HTTP/2 session, and it must be closed\00", align 1
@.str.42 = private unnamed_addr constant [63 x i8] c"SETTINGS frame contained more than the maximum allowed entries\00", align 1
@.str.43 = private unnamed_addr constant [54 x i8] c"Too many CONTINUATION frames following a HEADER frame\00", align 1
@.str.44 = private unnamed_addr constant [19 x i8] c"Unknown error code\00", align 1

; Function Attrs: nounwind uwtable
define ptr @nghttp2_strerror(i32 noundef %0) #0 {
  %2 = alloca ptr, align 8
  %3 = alloca i32, align 4
  store i32 %0, ptr %3, align 4, !tbaa !10
  %4 = load i32, ptr %3, align 4, !tbaa !10
  switch i32 %4, label %47 [
    i32 0, label %5
    i32 -501, label %6
    i32 -502, label %7
    i32 -503, label %8
    i32 -504, label %9
    i32 -505, label %10
    i32 -506, label %11
    i32 -507, label %12
    i32 -508, label %13
    i32 -509, label %14
    i32 -510, label %15
    i32 -511, label %16
    i32 -512, label %17
    i32 -513, label %18
    i32 -514, label %19
    i32 -515, label %20
    i32 -516, label %21
    i32 -517, label %22
    i32 -518, label %23
    i32 -519, label %24
    i32 -521, label %25
    i32 -522, label %26
    i32 -523, label %27
    i32 -524, label %28
    i32 -525, label %29
    i32 -526, label %30
    i32 -527, label %31
    i32 -528, label %32
    i32 -529, label %33
    i32 -530, label %34
    i32 -531, label %35
    i32 -532, label %36
    i32 -533, label %37
    i32 -534, label %38
    i32 -535, label %39
    i32 -536, label %40
    i32 -901, label %41
    i32 -902, label %42
    i32 -903, label %43
    i32 -904, label %44
    i32 -537, label %45
    i32 -905, label %46
  ]

5:                                                ; preds = %1
  store ptr @.str.2, ptr %2, align 8
  br label %48

6:                                                ; preds = %1
  store ptr @.str.3, ptr %2, align 8
  br label %48

7:                                                ; preds = %1
  store ptr @.str.4, ptr %2, align 8
  br label %48

8:                                                ; preds = %1
  store ptr @.str.5, ptr %2, align 8
  br label %48

9:                                                ; preds = %1
  store ptr @.str.6, ptr %2, align 8
  br label %48

10:                                               ; preds = %1
  store ptr @.str.7, ptr %2, align 8
  br label %48

11:                                               ; preds = %1
  store ptr @.str.8, ptr %2, align 8
  br label %48

12:                                               ; preds = %1
  store ptr @.str.9, ptr %2, align 8
  br label %48

13:                                               ; preds = %1
  store ptr @.str.10, ptr %2, align 8
  br label %48

14:                                               ; preds = %1
  store ptr @.str.11, ptr %2, align 8
  br label %48

15:                                               ; preds = %1
  store ptr @.str.12, ptr %2, align 8
  br label %48

16:                                               ; preds = %1
  store ptr @.str.13, ptr %2, align 8
  br label %48

17:                                               ; preds = %1
  store ptr @.str.14, ptr %2, align 8
  br label %48

18:                                               ; preds = %1
  store ptr @.str.15, ptr %2, align 8
  br label %48

19:                                               ; preds = %1
  store ptr @.str.16, ptr %2, align 8
  br label %48

20:                                               ; preds = %1
  store ptr @.str.17, ptr %2, align 8
  br label %48

21:                                               ; preds = %1
  store ptr @.str.18, ptr %2, align 8
  br label %48

22:                                               ; preds = %1
  store ptr @.str.19, ptr %2, align 8
  br label %48

23:                                               ; preds = %1
  store ptr @.str.20, ptr %2, align 8
  br label %48

24:                                               ; preds = %1
  store ptr @.str.21, ptr %2, align 8
  br label %48

25:                                               ; preds = %1
  store ptr @.str.22, ptr %2, align 8
  br label %48

26:                                               ; preds = %1
  store ptr @.str.23, ptr %2, align 8
  br label %48

27:                                               ; preds = %1
  store ptr @.str.24, ptr %2, align 8
  br label %48

28:                                               ; preds = %1
  store ptr @.str.25, ptr %2, align 8
  br label %48

29:                                               ; preds = %1
  store ptr @.str.26, ptr %2, align 8
  br label %48

30:                                               ; preds = %1
  store ptr @.str.27, ptr %2, align 8
  br label %48

31:                                               ; preds = %1
  store ptr @.str.28, ptr %2, align 8
  br label %48

32:                                               ; preds = %1
  store ptr @.str.29, ptr %2, align 8
  br label %48

33:                                               ; preds = %1
  store ptr @.str.30, ptr %2, align 8
  br label %48

34:                                               ; preds = %1
  store ptr @.str.31, ptr %2, align 8
  br label %48

35:                                               ; preds = %1
  store ptr @.str.32, ptr %2, align 8
  br label %48

36:                                               ; preds = %1
  store ptr @.str.33, ptr %2, align 8
  br label %48

37:                                               ; preds = %1
  store ptr @.str.34, ptr %2, align 8
  br label %48

38:                                               ; preds = %1
  store ptr @.str.35, ptr %2, align 8
  br label %48

39:                                               ; preds = %1
  store ptr @.str.36, ptr %2, align 8
  br label %48

40:                                               ; preds = %1
  store ptr @.str.37, ptr %2, align 8
  br label %48

41:                                               ; preds = %1
  store ptr @.str.38, ptr %2, align 8
  br label %48

42:                                               ; preds = %1
  store ptr @.str.39, ptr %2, align 8
  br label %48

43:                                               ; preds = %1
  store ptr @.str.40, ptr %2, align 8
  br label %48

44:                                               ; preds = %1
  store ptr @.str.41, ptr %2, align 8
  br label %48

45:                                               ; preds = %1
  store ptr @.str.42, ptr %2, align 8
  br label %48

46:                                               ; preds = %1
  store ptr @.str.43, ptr %2, align 8
  br label %48

47:                                               ; preds = %1
  store ptr @.str.44, ptr %2, align 8
  br label %48

48:                                               ; preds = %47, %46, %45, %44, %43, %42, %41, %40, %39, %38, %37, %36, %35, %34, %33, %32, %31, %30, %29, %28, %27, %26, %25, %24, %23, %22, %21, %20, %19, %18, %17, %16, %15, %14, %13, %12, %11, %10, %9, %8, %7, %6, %5
  %49 = load ptr, ptr %2, align 8
  ret ptr %49
}