; Function Attrs: mustprogress nofree norecurse nosync nounwind willreturn memory(none) uwtable
define noundef nonnull ptr @nghttp2_strerror(i32 noundef %0) local_unnamed_addr #7 {
  switch i32 %0, label %43 [
    i32 0, label %44
    i32 -501, label %2
    i32 -502, label %3
    i32 -503, label %4
    i32 -504, label %5
    i32 -505, label %6
    i32 -506, label %7
    i32 -507, label %8
    i32 -508, label %9
    i32 -509, label %10
    i32 -510, label %11
    i32 -511, label %12
    i32 -512, label %13
    i32 -513, label %14
    i32 -514, label %15
    i32 -515, label %16
    i32 -516, label %17
    i32 -517, label %18
    i32 -518, label %19
    i32 -519, label %20
    i32 -521, label %21
    i32 -522, label %22
    i32 -523, label %23
    i32 -524, label %24
    i32 -525, label %25
    i32 -526, label %26
    i32 -527, label %27
    i32 -528, label %28
    i32 -529, label %29
    i32 -530, label %30
    i32 -531, label %31
    i32 -532, label %32
    i32 -533, label %33
    i32 -534, label %34
    i32 -535, label %35
    i32 -536, label %36
    i32 -901, label %37
    i32 -902, label %38
    i32 -903, label %39
    i32 -904, label %40
    i32 -537, label %41
    i32 -905, label %42
  ]

2:                                                ; preds = %1
  br label %44

3:                                                ; preds = %1
  br label %44

4:                                                ; preds = %1
  br label %44

5:                                                ; preds = %1
  br label %44

6:                                                ; preds = %1
  br label %44

7:                                                ; preds = %1
  br label %44

8:                                                ; preds = %1
  br label %44

9:                                                ; preds = %1
  br label %44

10:                                               ; preds = %1
  br label %44

11:                                               ; preds = %1
  br label %44

12:                                               ; preds = %1
  br label %44

13:                                               ; preds = %1
  br label %44

14:                                               ; preds = %1
  br label %44

15:                                               ; preds = %1
  br label %44

16:                                               ; preds = %1
  br label %44

17:                                               ; preds = %1
  br label %44

18:                                               ; preds = %1
  br label %44

19:                                               ; preds = %1
  br label %44

20:                                               ; preds = %1
  br label %44

21:                                               ; preds = %1
  br label %44

22:                                               ; preds = %1
  br label %44

23:                                               ; preds = %1
  br label %44

24:                                               ; preds = %1
  br label %44

25:                                               ; preds = %1
  br label %44

26:                                               ; preds = %1
  br label %44

27:                                               ; preds = %1
  br label %44

28:                                               ; preds = %1
  br label %44

29:                                               ; preds = %1
  br label %44

30:                                               ; preds = %1
  br label %44

31:                                               ; preds = %1
  br label %44

32:                                               ; preds = %1
  br label %44

33:                                               ; preds = %1
  br label %44

34:                                               ; preds = %1
  br label %44

35:                                               ; preds = %1
  br label %44

36:                                               ; preds = %1
  br label %44

37:                                               ; preds = %1
  br label %44

38:                                               ; preds = %1
  br label %44

39:                                               ; preds = %1
  br label %44

40:                                               ; preds = %1
  br label %44

41:                                               ; preds = %1
  br label %44

42:                                               ; preds = %1
  br label %44

43:                                               ; preds = %1
  br label %44

44:                                               ; preds = %1, %43, %42, %41, %40, %39, %38, %37, %36, %35, %34, %33, %32, %31, %30, %29, %28, %27, %26, %25, %24, %23, %22, %21, %20, %19, %18, %17, %16, %15, %14, %13, %12, %11, %10, %9, %8, %7, %6, %5, %4, %3, %2
  %.0 = phi ptr [ @.str.44, %43 ], [ @.str.43, %42 ], [ @.str.42, %41 ], [ @.str.41, %40 ], [ @.str.40, %39 ], [ @.str.39, %38 ], [ @.str.38, %37 ], [ @.str.37, %36 ], [ @.str.36, %35 ], [ @.str.35, %34 ], [ @.str.34, %33 ], [ @.str.33, %32 ], [ @.str.32, %31 ], [ @.str.31, %30 ], [ @.str.30, %29 ], [ @.str.29, %28 ], [ @.str.28, %27 ], [ @.str.27, %26 ], [ @.str.26, %25 ], [ @.str.25, %24 ], [ @.str.24, %23 ], [ @.str.23, %22 ], [ @.str.22, %21 ], [ @.str.21, %20 ], [ @.str.20, %19 ], [ @.str.19, %18 ], [ @.str.18, %17 ], [ @.str.17, %16 ], [ @.str.16, %15 ], [ @.str.15, %14 ], [ @.str.14, %13 ], [ @.str.13, %12 ], [ @.str.12, %11 ], [ @.str.11, %10 ], [ @.str.10, %9 ], [ @.str.9, %8 ], [ @.str.8, %7 ], [ @.str.7, %6 ], [ @.str.6, %5 ], [ @.str.5, %4 ], [ @.str.4, %3 ], [ @.str.3, %2 ], [ @.str.2, %1 ]
  ret ptr %.0
}